target datalayout = "e-m:e-p270:32:32-p271:32:32-p272:64:64-i64:64-i128:128-f80:128-n8:16:32:64-S128"
target triple = "x86_64-pc-linux-gnu"

%struct.SlruCtlData = type { ptr, i16, i8, i32, ptr, [64 x i8] }
%struct.CommitTimestampShared = type { i32, %struct.CommitTimestampEntry, i8 }
%struct.CommitTimestampEntry = type { i64, i16 }
%union.LWLockPadded = type { %struct.LWLock, [112 x i8] }
%struct.LWLock = type { i16, %struct.pg_atomic_uint32, %struct.proclist_head }
%struct.pg_atomic_uint32 = type { i32 }
%struct.proclist_head = type { i32, i32 }
%struct.TransamVariablesData = type { i32, i32, %struct.FullTransactionId, i32, i32, i32, i32, i32, i32, i32, i32, %struct.FullTransactionId, i64, i32 }
%struct.FullTransactionId = type { i64 }
%struct.SlruSharedData = type { i32, ptr, ptr, ptr, ptr, ptr, ptr, ptr, ptr, ptr, i32, %struct.pg_atomic_uint64, i32 }
%struct.pg_atomic_uint64 = type { i64 }

@commitTsShared = internal global ptr null, align 8
@MainLWLockArray = external global ptr, align 8
@TransamVariables = external global ptr, align 8
@CommitTsCtlData = internal global %struct.SlruCtlData zeroinitializer, align 8

; Function Attrs: nounwind uwtable
define internal void @WriteZeroPageXlogRec(i64 noundef %0) #0 {
  %2 = alloca i64, align 8
  store i64 %0, ptr %2, align 8
  call void @XLogBeginInsert()
  call void @XLogRegisterData(ptr noundef %2, i32 noundef 8)
  %3 = call i64 @XLogInsert(i8 noundef zeroext 18, i8 noundef zeroext 0)
  ret void
}

; Function Attrs: inlinehint nounwind uwtable
define internal void @pg_atomic_write_u64_impl(ptr noundef %0, i64 noundef %1) #2 {
  %3 = alloca ptr, align 8
  %4 = alloca i64, align 8
  store ptr %0, ptr %3, align 8
  store i64 %1, ptr %4, align 8
  %5 = load i64, ptr %4, align 8
  %6 = load ptr, ptr %3, align 8
  %7 = getelementptr inbounds nuw %struct.pg_atomic_uint64, ptr %6, i32 0, i32 0
  store volatile i64 %5, ptr %7, align 8
  ret void
}

; Function Attrs: nounwind uwtable
define internal i32 @ZeroCommitTsPage(i64 noundef %0, i1 noundef zeroext %1) #0 {
  %3 = alloca i64, align 8
  %4 = alloca i8, align 1
  %5 = alloca i32, align 4
  store i64 %0, ptr %3, align 8
  %6 = zext i1 %1 to i8
  store i8 %6, ptr %4, align 1
  call void @llvm.lifetime.start.p0(i64 4, ptr %5) #7
  %7 = load i64, ptr %3, align 8
  %8 = call i32 @SimpleLruZeroPage(ptr noundef @CommitTsCtlData, i64 noundef %7)
  store i32 %8, ptr %5, align 4
  %9 = load i8, ptr %4, align 1, !range !4, !noundef !5
  %10 = trunc i8 %9 to i1
  br i1 %10, label %11, label %13

11:                                               ; preds = %2
  %12 = load i64, ptr %3, align 8
  call void @WriteZeroPageXlogRec(i64 noundef %12)
  br label %13

13:                                               ; preds = %11, %2
  %14 = load i32, ptr %5, align 4
  call void @llvm.lifetime.end.p0(i64 4, ptr %5) #7
  ret i32 %14
}

; Function Attrs: inlinehint nounwind uwtable
define internal ptr @SimpleLruGetBankLock(ptr noundef %0, i64 noundef %1) #2 {
  %3 = alloca ptr, align 8
  %4 = alloca i64, align 8
  %5 = alloca i32, align 4
  store ptr %0, ptr %3, align 8
  store i64 %1, ptr %4, align 8
  call void @llvm.lifetime.start.p0(i64 4, ptr %5) #7
  %6 = load i64, ptr %4, align 8
  %7 = load ptr, ptr %3, align 8
  %8 = getelementptr inbounds nuw %struct.SlruCtlData, ptr %7, i32 0, i32 1
  %9 = load i16, ptr %8, align 8
  %10 = zext i16 %9 to i64
  %11 = srem i64 %6, %10
  %12 = trunc i64 %11 to i32
  store i32 %12, ptr %5, align 4
  %13 = load ptr, ptr %3, align 8
  %14 = getelementptr inbounds nuw %struct.SlruCtlData, ptr %13, i32 0, i32 0
  %15 = load ptr, ptr %14, align 8
  %16 = getelementptr inbounds nuw %struct.SlruSharedData, ptr %15, i32 0, i32 7
  %17 = load ptr, ptr %16, align 8
  %18 = load i32, ptr %5, align 4
  %19 = sext i32 %18 to i64
  %20 = getelementptr inbounds %union.LWLockPadded, ptr %17, i64 %19
  call void @llvm.lifetime.end.p0(i64 4, ptr %5) #7
  ret ptr %20
}

; Function Attrs: inlinehint nounwind uwtable
define internal i32 @ReadNextTransactionId() #2 {
  %1 = alloca %struct.FullTransactionId, align 8
  %2 = call i64 @ReadNextFullTransactionId()
  %3 = getelementptr inbounds nuw %struct.FullTransactionId, ptr %1, i32 0, i32 0
  store i64 %2, ptr %3, align 8
  %4 = getelementptr inbounds nuw %struct.FullTransactionId, ptr %1, i32 0, i32 0
  %5 = load i64, ptr %4, align 8
  %6 = trunc i64 %5 to i32
  ret i32 %6
}

; Function Attrs: inlinehint nounwind uwtable
define internal void @pg_atomic_write_u64(ptr noundef %0, i64 noundef %1) #2 {
  %3 = alloca ptr, align 8
  %4 = alloca i64, align 8
  store ptr %0, ptr %3, align 8
  store i64 %1, ptr %4, align 8
  %5 = load ptr, ptr %3, align 8
  %6 = load i64, ptr %4, align 8
  call void @pg_atomic_write_u64_impl(ptr noundef %5, i64 noundef %6)
  ret void
}

; Function Attrs: inlinehint nounwind uwtable
define internal i64 @TransactionIdToCTsPage(i32 noundef %0) #2 {
  %2 = alloca i32, align 4
  store i32 %0, ptr %2, align 4
  %3 = load i32, ptr %2, align 4
  %4 = zext i32 %3 to i64
  %5 = sdiv i64 %4, 819
  ret i64 %5
}

; Function Attrs: nounwind uwtable
define internal void @ActivateCommitTs() #0 {
  %1 = alloca i32, align 4
  %2 = alloca i64, align 8
  %3 = alloca i32, align 4
  %4 = alloca ptr, align 8
  %5 = alloca i32, align 4
  call void @llvm.lifetime.start.p0(i64 4, ptr %1) #7
  call void @llvm.lifetime.start.p0(i64 8, ptr %2) #7
  %6 = load ptr, ptr @MainLWLockArray, align 8
  %7 = getelementptr inbounds %union.LWLockPadded, ptr %6, i64 39
  %8 = call zeroext i1 @LWLockAcquire(ptr noundef %7, i32 noundef 0)
  %9 = load ptr, ptr @commitTsShared, align 8
  %10 = getelementptr inbounds nuw %struct.CommitTimestampShared, ptr %9, i32 0, i32 2
  %11 = load i8, ptr %10, align 8, !range !4, !noundef !5
  %12 = trunc i8 %11 to i1
  br i1 %12, label %13, label %16

13:                                               ; preds = %0
  %14 = load ptr, ptr @MainLWLockArray, align 8
  %15 = getelementptr inbounds %union.LWLockPadded, ptr %14, i64 39
  call void @LWLockRelease(ptr noundef %15)
  store i32 1, ptr %3, align 4
  br label %64

16:                                               ; preds = %0
  %17 = load ptr, ptr @MainLWLockArray, align 8
  %18 = getelementptr inbounds %union.LWLockPadded, ptr %17, i64 39
  call void @LWLockRelease(ptr noundef %18)
  %19 = load ptr, ptr @TransamVariables, align 8
  %20 = getelementptr inbounds nuw %struct.TransamVariablesData, ptr %19, i32 0, i32 2
  %21 = getelementptr inbounds nuw %struct.FullTransactionId, ptr %20, i32 0, i32 0
  %22 = load i64, ptr %21, align 8
  %23 = trunc i64 %22 to i32
  store i32 %23, ptr %1, align 4
  %24 = load i32, ptr %1, align 4
  %25 = call i64 @TransactionIdToCTsPage(i32 noundef %24)
  store i64 %25, ptr %2, align 8
  %26 = load ptr, ptr @CommitTsCtlData, align 8
  %27 = getelementptr inbounds nuw %struct.SlruSharedData, ptr %26, i32 0, i32 11
  %28 = load i64, ptr %2, align 8
  call void @pg_atomic_write_u64(ptr noundef %27, i64 noundef %28)
  %29 = load ptr, ptr @MainLWLockArray, align 8
  %30 = getelementptr inbounds %union.LWLockPadded, ptr %29, i64 39
  %31 = call zeroext i1 @LWLockAcquire(ptr noundef %30, i32 noundef 0)
  %32 = load ptr, ptr @TransamVariables, align 8
  %33 = getelementptr inbounds nuw %struct.TransamVariablesData, ptr %32, i32 0, i32 9
  %34 = load i32, ptr %33, align 8
  %35 = icmp eq i32 %34, 0
  br i1 %35, label %36, label %42

36:                                               ; preds = %16
  %37 = call i32 @ReadNextTransactionId()
  %38 = load ptr, ptr @TransamVariables, align 8
  %39 = getelementptr inbounds nuw %struct.TransamVariablesData, ptr %38, i32 0, i32 10
  store i32 %37, ptr %39, align 4
  %40 = load ptr, ptr @TransamVariables, align 8
  %41 = getelementptr inbounds nuw %struct.TransamVariablesData, ptr %40, i32 0, i32 9
  store i32 %37, ptr %41, align 8
  br label %42

42:                                               ; preds = %36, %16
  %43 = load ptr, ptr @MainLWLockArray, align 8
  %44 = getelementptr inbounds %union.LWLockPadded, ptr %43, i64 39
  call void @LWLockRelease(ptr noundef %44)
  %45 = load i64, ptr %2, align 8
  %46 = call zeroext i1 @SimpleLruDoesPhysicalPageExist(ptr noundef @CommitTsCtlData, i64 noundef %45)
  br i1 %46, label %56, label %47

47:                                               ; preds = %42
  call void @llvm.lifetime.start.p0(i64 8, ptr %4) #7
  %48 = load i64, ptr %2, align 8
  %49 = call ptr @SimpleLruGetBankLock(ptr noundef @CommitTsCtlData, i64 noundef %48)
  store ptr %49, ptr %4, align 8
  call void @llvm.lifetime.start.p0(i64 4, ptr %5) #7
  %50 = load ptr, ptr %4, align 8
  %51 = call zeroext i1 @LWLockAcquire(ptr noundef %50, i32 noundef 0)
  %52 = load i64, ptr %2, align 8
  %53 = call i32 @ZeroCommitTsPage(i64 noundef %52, i1 noundef zeroext false)
  store i32 %53, ptr %5, align 4
  %54 = load i32, ptr %5, align 4
  call void @SimpleLruWritePage(ptr noundef @CommitTsCtlData, i32 noundef %54)
  %55 = load ptr, ptr %4, align 8
  call void @LWLockRelease(ptr noundef %55)
  call void @llvm.lifetime.end.p0(i64 4, ptr %5) #7
  call void @llvm.lifetime.end.p0(i64 8, ptr %4) #7
  br label %56

56:                                               ; preds = %47, %42
  %57 = load ptr, ptr @MainLWLockArray, align 8
  %58 = getelementptr inbounds %union.LWLockPadded, ptr %57, i64 39
  %59 = call zeroext i1 @LWLockAcquire(ptr noundef %58, i32 noundef 0)
  %60 = load ptr, ptr @commitTsShared, align 8
  %61 = getelementptr inbounds nuw %struct.CommitTimestampShared, ptr %60, i32 0, i32 2
  store i8 1, ptr %61, align 8
  %62 = load ptr, ptr @MainLWLockArray, align 8
  %63 = getelementptr inbounds %union.LWLockPadded, ptr %62, i64 39
  call void @LWLockRelease(ptr noundef %63)
  store i32 0, ptr %3, align 4
  br label %64

64:                                               ; preds = %56, %13
  call void @llvm.lifetime.end.p0(i64 8, ptr %2) #7
  call void @llvm.lifetime.end.p0(i64 4, ptr %1) #7
  %65 = load i32, ptr %3, align 4
  switch i32 %65, label %67 [
    i32 0, label %66
    i32 1, label %66
  ]

66:                                               ; preds = %64, %64
  ret void

67:                                               ; preds = %64
  unreachable
}