; Function Attrs: nounwind uwtable
define internal fastcc void @ActivateCommitTs() unnamed_addr #0 {
  %1 = load ptr, ptr @MainLWLockArray, align 8
  %2 = getelementptr inbounds nuw i8, ptr %1, i64 4992
  %3 = tail call zeroext i1 @LWLockAcquire(ptr noundef nonnull %2, i32 noundef 0) #9
  %4 = load ptr, ptr @commitTsShared, align 8
  %5 = getelementptr inbounds nuw i8, ptr %4, i64 24
  %6 = load i8, ptr %5, align 8, !range !4, !noundef !5
  %7 = trunc nuw i8 %6 to i1
  %8 = load ptr, ptr @MainLWLockArray, align 8
  %9 = getelementptr inbounds nuw i8, ptr %8, i64 4992
  tail call void @LWLockRelease(ptr noundef nonnull %9) #9
  br i1 %7, label %55, label %10

10:                                               ; preds = %0
  %11 = load ptr, ptr @TransamVariables, align 8
  %12 = getelementptr inbounds nuw i8, ptr %11, i64 8
  %13 = load i64, ptr %12, align 8
  %14 = trunc i64 %13 to i32
  %15 = udiv i32 %14, 819
  %16 = zext nneg i32 %15 to i64
  %17 = load ptr, ptr @CommitTsCtlData, align 8
  %18 = getelementptr inbounds nuw i8, ptr %17, i64 88
  store volatile i64 %16, ptr %18, align 8
  %19 = load ptr, ptr @MainLWLockArray, align 8
  %20 = getelementptr inbounds nuw i8, ptr %19, i64 4992
  %21 = tail call zeroext i1 @LWLockAcquire(ptr noundef nonnull %20, i32 noundef 0) #9
  %22 = load ptr, ptr @TransamVariables, align 8
  %23 = getelementptr inbounds nuw i8, ptr %22, i64 40
  %24 = load i32, ptr %23, align 8
  %25 = icmp eq i32 %24, 0
  br i1 %25, label %26, label %32

26:                                               ; preds = %10
  %27 = tail call i64 @ReadNextFullTransactionId() #9
  %28 = trunc i64 %27 to i32
  %29 = load ptr, ptr @TransamVariables, align 8
  %30 = getelementptr inbounds nuw i8, ptr %29, i64 44
  store i32 %28, ptr %30, align 4
  %31 = getelementptr inbounds nuw i8, ptr %29, i64 40
  store i32 %28, ptr %31, align 8
  br label %32

32:                                               ; preds = %26, %10
  %33 = load ptr, ptr @MainLWLockArray, align 8
  %34 = getelementptr inbounds nuw i8, ptr %33, i64 4992
  tail call void @LWLockRelease(ptr noundef nonnull %34) #9
  %35 = tail call zeroext i1 @SimpleLruDoesPhysicalPageExist(ptr noundef nonnull @CommitTsCtlData, i64 noundef %16) #9
  br i1 %35, label %47, label %36

36:                                               ; preds = %32
  %37 = load i16, ptr getelementptr inbounds nuw (i8, ptr @CommitTsCtlData, i64 8), align 8
  %.rhs.trunc = zext i16 %37 to i32
  %38 = urem i32 %15, %.rhs.trunc
  %39 = load ptr, ptr @CommitTsCtlData, align 8
  %40 = getelementptr inbounds nuw i8, ptr %39, i64 56
  %41 = load ptr, ptr %40, align 8
  %42 = shl nuw nsw i32 %38, 7
  %43 = zext nneg i32 %42 to i64
  %44 = getelementptr inbounds nuw i8, ptr %41, i64 %43
  %45 = tail call zeroext i1 @LWLockAcquire(ptr noundef %44, i32 noundef 0) #9
  %46 = tail call i32 @SimpleLruZeroPage(ptr noundef nonnull @CommitTsCtlData, i64 noundef %16) #9
  tail call void @SimpleLruWritePage(ptr noundef nonnull @CommitTsCtlData, i32 noundef %46) #9
  tail call void @LWLockRelease(ptr noundef %44) #9
  br label %47

47:                                               ; preds = %36, %32
  %48 = load ptr, ptr @MainLWLockArray, align 8
  %49 = getelementptr inbounds nuw i8, ptr %48, i64 4992
  %50 = tail call zeroext i1 @LWLockAcquire(ptr noundef nonnull %49, i32 noundef 0) #9
  %51 = load ptr, ptr @commitTsShared, align 8
  %52 = getelementptr inbounds nuw i8, ptr %51, i64 24
  store i8 1, ptr %52, align 8
  %53 = load ptr, ptr @MainLWLockArray, align 8
  %54 = getelementptr inbounds nuw i8, ptr %53, i64 4992
  tail call void @LWLockRelease(ptr noundef nonnull %54) #9
  br label %55

55:                                               ; preds = %0, %47
  ret void
}